; Function Attrs: nounwind uwtable
define internal noundef i32 @adts_write_trailer(ptr noundef %0) #0 {
  %2 = getelementptr inbounds nuw i8, ptr %0, i64 24
  %3 = load ptr, ptr %2, align 8, !tbaa !4
  %4 = getelementptr inbounds nuw i8, ptr %3, i64 28
  %5 = load i32, ptr %4, align 4, !tbaa !53
  %.not = icmp eq i32 %5, 0
  br i1 %.not, label %8, label %6

6:                                                ; preds = %1
  %7 = tail call i32 @ff_ape_write_tag(ptr noundef nonnull %0) #7
  br label %8

8:                                                ; preds = %6, %1
  ret i32 0
}